(dp0
S'cookies'
p1
(dp2
S'wxloadtime'
p3
S'1516800939'
p4
sS'webwx_data_ticket'
p5
S'gSdRmC+UeaCFCr8eRyNNgxU2'
p6
sS'wxuin'
p7
S'2508128381'
p8
sS'login_frequency'
p9
S'2'
p10
sS'MM_WX_NOTIFY_STATE'
p11
S'1'
p12
sS'MM_WX_SOUND_STATE'
p13
g12
sS'webwx_auth_ticket'
p14
S'CIsBEImC3SMagAGQDc2eQgvBNbrn2WYjBhXcoc02cX29cISsX/b0fmZPXAQImGrZi67DdpOq6eZDCrAsGOunL+/G/nDfaU5xCrdyPO4JkOpo4rQXHd0R1FnfSiEet1ceqkWuSD3C/YbIQmur2ooyAI95bZz8KIRMxHUQBm+ncsd/abEwiudX2IGj4Q=='
p15
sS'last_wxuin'
p16
S'863018270'
p17
sS'webwxuvid'
p18
S'32290296a51c0356837393d32f1a8c2ae4de4c86bd488605cd67fd86f2ffa7c1724c5e8ea0a4b7c4285f578e05b87de0'
p19
sS'wxpluginkey'
p20
S'1516764334'
p21
sS'wxsid'
p22
S'MMtgJyg7aplZzvu2'
p23
sS'mm_lang'
p24
S'zh_CN'
p25
ssS'version'
p26
S'1.3.10'
p27
sS'storage'
p28
(dp29
S'userName'
p30
V@d9260fce569e1cdc07e87355a9ba0284d9d2fe902c636081138563b0b57b9349
p31
sS'lastInputUserName'
p32
NsS'memberList'
p33
ccopy_reg
_reconstructor
p34
(citchat.storage.templates
ContactList
p35
c__builtin__
list
p36
(lp37
g34
(citchat.storage.templates
User
p38
c__builtin__
dict
p39
(dp40
S'UserName'
p41
g31
sS'City'
p42
S''
p43
sS'DisplayName'
p44
g43
sS'UniFriend'
p45
I0
sS'OwnerUin'
p46
I0
sS'MemberList'
p47
g34
(g35
g36
(lp48
tp49
Rp50
I1
bsS'PYQuanPin'
p51
V
p52
sS'RemarkPYInitial'
p53
g52
sS'Uin'
p54
I2508128381
sS'AppAccountFlag'
p55
I0
sS'VerifyFlag'
p56
I0
sS'Province'
p57
g43
sS'KeyWord'
p58
g43
sS'RemarkName'
p59
g52
sS'PYInitial'
p60
g52
sS'ChatRoomId'
p61
I0
sS'HideInputBarFlag'
p62
I0
sVHeadImgFlag
p63
I1
sS'EncryChatRoomId'
p64
g43
sS'AttrStatus'
p65
I0
sS'SnsFlag'
p66
I17
sS'MemberCount'
p67
I0
sVWebWxPluginSwitch
p68
I0
sS'Alias'
p69
g43
sS'Signature'
p70
V\u5929\u884c\u5065\uff0c\u541b\u5b50\u4ee5\u81ea\u5f3a\u4e0d\u606f\u000a\u5730\u52bf\u5764\uff0c\u541b\u5b50\u4ee5\u539a\u5fb7\u8f7d\u7269
p71
sS'ContactFlag'
p72
I0
sS'NickName'
p73
V\u6c90\u5f0b
p74
sS'RemarkPYQuanPin'
p75
g52
sS'HeadImgUrl'
p76
V/cgi-bin/mmwebwx-bin/webwxgeticon?seq=1285437205&username=@d9260fce569e1cdc07e87355a9ba0284d9d2fe902c636081138563b0b57b9349&skey=@crypt_b45f0f0e_1bdbad88173e6c7a00ad2f0be5cdf254
p77
sS'Sex'
p78
I1
sS'StarFriend'
p79
I0
sS'Statues'
p80
I0
stp81
Rp82
I1
batp83
Rp84
I1
bsS'chatroomList'
p85
g34
(g35
g36
(lp86
g34
(citchat.storage.templates
Chatroom
p87
g39
(dp88
VUserName
p89
V@@da5d55857c2a086e87513d74671de7d5f6ed7a0bc53f18700ce616d1d991bcaf
p90
sVCity
p91
g52
sVDisplayName
p92
g52
sVUniFriend
p93
I0
sS'Self'
p94
g34
(g38
g39
(dp95
g41
g31
sg42
g43
sg44
g43
sg45
I0
sg46
I0
sg47
g34
(g35
g36
(lp96
tp97
Rp98
I1
bsg51
g52
sg53
g52
sg54
I2508128381
sg55
I0
sg56
I0
sg57
g43
sg58
g43
sg59
g52
sg60
g52
sg61
I0
sg62
I0
sg63
I1
sg64
g43
sg65
I0
sg66
I17
sg67
I0
sg68
I0
sg69
g43
sg70
V\u5929\u884c\u5065\uff0c\u541b\u5b50\u4ee5\u81ea\u5f3a\u4e0d\u606f\u000a\u5730\u52bf\u5764\uff0c\u541b\u5b50\u4ee5\u539a\u5fb7\u8f7d\u7269
p99
sg72
I0
sg73
g74
sg75
g52
sg76
g77
sg78
I1
sg79
I0
sg80
I0
stp100
Rp101
I1
bsVMemberList
p102
g34
(g35
g36
(lp103
tp104
Rp105
I1
bsVPYQuanPin
p106
g52
sVRemarkPYInitial
p107
g52
sVSex
p108
I0
sVAppAccountFlag
p109
I0
sVVerifyFlag
p110
I0
sVProvince
p111
g52
sVKeyWord
p112
g52
sVRemarkName
p113
g52
sVPYInitial
p114
g52
sVIsOwner
p115
I0
sVChatRoomId
p116
I0
sVHideInputBarFlag
p117
I0
sVEncryChatRoomId
p118
g52
sVAttrStatus
p119
I0
sVSnsFlag
p120
I0
sVMemberCount
p121
I123
sVOwnerUin
p122
I0
sVAlias
p123
g52
sS'IsAdmin'
p124
NsVSignature
p125
g52
sVContactFlag
p126
I0
sVNickName
p127
V\u81ea\u5df1\u641c\u7d22\u81ea\u5df1\u9700\u8981\u7684\u4ea7\u54c1\uff01
p128
sVRemarkPYQuanPin
p129
g52
sVHeadImgUrl
p130
V/cgi-bin/mmwebwx-bin/webwxgetheadimg?seq=0&username=@@da5d55857c2a086e87513d74671de7d5f6ed7a0bc53f18700ce616d1d991bcaf&skey=@crypt_b45f0f0e_1bdbad88173e6c7a00ad2f0be5cdf254
p131
sVUin
p132
I0
sVStarFriend
p133
I0
sVStatues
p134
I0
stp135
Rp136
I1
batp137
Rp138
I1
bsS'nickName'
p139
g74
sS'mpList'
p140
g34
(g35
g36
(lp141
g34
(citchat.storage.templates
MassivePlatform
p142
g39
(dp143
VUserName
p144
V@02136c917f14f92b41c6eccb9f250204
p145
sVCity
p146
V\u53f0\u5317\u5e02
p147
sVSnsFlag
p148
I0
sVDisplayName
p149
g52
sVUniFriend
p150
I0
sVMemberCount
p151
I0
sVOwnerUin
p152
I0
sVMemberList
p153
g50
sVAlias
p154
g52
sVPYQuanPin
p155
Vkanshuyoudao
p156
sVSignature
p157
V\u6bcf\u665a9:30\uff0c\u966a\u4f60\u628a\u751f\u6d3b\u8fc7\u6210\u8bd7\u3002
p158
sVRemarkPYInitial
p159
g52
sVContactFlag
p160
I3
sVUin
p161
I0
sVNickName
p162
V\u770b\u4e66\u6709\u9053
p163
sVAppAccountFlag
p164
I0
sVVerifyFlag
p165
I8
sVRemarkPYQuanPin
p166
g52
sVHeadImgUrl
p167
V/cgi-bin/mmwebwx-bin/webwxgeticon?seq=641961406&username=@02136c917f14f92b41c6eccb9f250204&skey=@crypt_b45f0f0e_1bdbad88173e6c7a00ad2f0be5cdf254
p168
sVKeyWord
p169
Vgh_
p170
sVProvince
p171
V\u53f0\u6e7e
p172
sVPYInitial
p173
VKSYD
p174
sVRemarkName
p175
g52
sVIsOwner
p176
I0
sVSex
p177
I0
sVStarFriend
p178
I0
sVHideInputBarFlag
p179
I0
sVChatRoomId
p180
I0
sVEncryChatRoomId
p181
g52
sVAttrStatus
p182
I0
sVStatues
p183
I0
stp184
Rp185
I1
bag34
(g142
g39
(dp186
VUserName
p187
V@0547ebdf24b722bcc58ad251c7116e0a
p188
sVCity
p189
V\u671d\u9633
p190
sVSnsFlag
p191
I0
sVDisplayName
p192
g52
sVUniFriend
p193
I0
sVMemberCount
p194
I0
sVOwnerUin
p195
I0
sVMemberList
p196
g50
sVAlias
p197
g52
sVPYQuanPin
p198
Vbaoxiaogiftu
p199
sVSignature
p200
V\u5fae\u4fe1\u6700\u706bgif\u56fe\u8d26\u53f7\u3002\u52a8\u6001\u56fe\u9996\u53d1\u5e73\u53f0\u3002
p201
sVRemarkPYInitial
p202
g52
sVContactFlag
p203
I3
sVUin
p204
I0
sVNickName
p205
V\u7206\u7b11gif\u56fe
p206
sVAppAccountFlag
p207
I0
sVVerifyFlag
p208
I24
sVRemarkPYQuanPin
p209
g52
sVHeadImgUrl
p210
V/cgi-bin/mmwebwx-bin/webwxgeticon?seq=651715834&username=@0547ebdf24b722bcc58ad251c7116e0a&skey=@crypt_b45f0f0e_1bdbad88173e6c7a00ad2f0be5cdf254
p211
sVKeyWord
p212
Vgh_
p213
sVProvince
p214
V\u5317\u4eac
p215
sVPYInitial
p216
VBXGIFT
p217
sVRemarkName
p218
g52
sVIsOwner
p219
I0
sVSex
p220
I0
sVStarFriend
p221
I0
sVHideInputBarFlag
p222
I0
sVChatRoomId
p223
I0
sVEncryChatRoomId
p224
g52
sVAttrStatus
p225
I0
sVStatues
p226
I0
stp227
Rp228
I1
bag34
(g142
g39
(dp229
VUserName
p230
V@94ca5adf0ccff01cbff7d9bcb241d5e5
p231
sVCity
p232
g52
sVSnsFlag
p233
I0
sVDisplayName
p234
g52
sVUniFriend
p235
I0
sVMemberCount
p236
I0
sVOwnerUin
p237
I0
sVMemberList
p238
g50
sVAlias
p239
g52
sVPYQuanPin
p240
Vcehuilianmeng
p241
sVSignature
p242
V\u6d4b\u7ed8\u8d44\u8baf\u3001\u884c\u4e1a\u8d44\u8baf\u3001\u6d4b\u7ed8\u65e0\u4eba\u673a\u3001\u8f68\u9053\u4ea4\u901a\u3001\u667a\u6167\u57ce\u5e02\u7b49\u4fe1\u606f\u7684\u53d1\u5e03
p243
sVRemarkPYInitial
p244
g52
sVContactFlag
p245
I3
sVUin
p246
I0
sVNickName
p247
V\u6d4b\u7ed8\u8054\u76df
p248
sVAppAccountFlag
p249
I0
sVVerifyFlag
p250
I24
sVRemarkPYQuanPin
p251
g52
sVHeadImgUrl
p252
V/cgi-bin/mmwebwx-bin/webwxgeticon?seq=651757557&username=@94ca5adf0ccff01cbff7d9bcb241d5e5&skey=@crypt_b45f0f0e_1bdbad88173e6c7a00ad2f0be5cdf254
p253
sVKeyWord
p254
Vgh_
p255
sVProvince
p256
g52
sVPYInitial
p257
VCHLM
p258
sVRemarkName
p259
g52
sVIsOwner
p260
I0
sVSex
p261
I0
sVStarFriend
p262
I0
sVHideInputBarFlag
p263
I0
sVChatRoomId
p264
I0
sVEncryChatRoomId
p265
g52
sVAttrStatus
p266
I0
sVStatues
p267
I0
stp268
Rp269
I1
bag34
(g142
g39
(dp270
VUserName
p271
V@a0b31c2db707e6ac36034b180feeaca5
p272
sVCity
p273
V\u666f\u5fb7\u9547
p274
sVSnsFlag
p275
I0
sVDisplayName
p276
g52
sVUniFriend
p277
I0
sVMemberCount
p278
I0
sVOwnerUin
p279
I0
sVMemberList
p280
g50
sVAlias
p281
g52
sVPYQuanPin
p282
Vzuitaoci
p283
sVSignature
p284
V\u9082\u9005\u9676\u74f7\u5de5\u827a\u4e4b\u7f8e\uff0c\u9047\u89c1\u9690\u85cf\u5728\u9676\u827a\u521b\u4f5c\u80cc\u540e\u7684\u5320\u4eba\u4e4b\u5fc3\u2026\u2026
p285
sVRemarkPYInitial
p286
g52
sVContactFlag
p287
I3
sVUin
p288
I0
sVNickName
p289
V\u6700\u9676\u74f7
p290
sVAppAccountFlag
p291
I0
sVVerifyFlag
p292
I8
sVRemarkPYQuanPin
p293
g52
sVHeadImgUrl
p294
V/cgi-bin/mmwebwx-bin/webwxgeticon?seq=632644339&username=@a0b31c2db707e6ac36034b180feeaca5&skey=@crypt_b45f0f0e_1bdbad88173e6c7a00ad2f0be5cdf254
p295
sVKeyWord
p296
Vgh_
p297
sVProvince
p298
V\u6c5f\u897f
p299
sVPYInitial
p300
VZTC
p301
sVRemarkName
p302
g52
sVIsOwner
p303
I0
sVSex
p304
I0
sVStarFriend
p305
I0
sVHideInputBarFlag
p306
I0
sVChatRoomId
p307
I0
sVEncryChatRoomId
p308
g52
sVAttrStatus
p309
I0
sVStatues
p310
I0
stp311
Rp312
I1
bag34
(g142
g39
(dp313
VUserName
p314
V@8aeb8af90aeefd993fe584fc07bc58e1
p315
sVCity
p316
V\u4e1c\u57ce
p317
sVSnsFlag
p318
I0
sVDisplayName
p319
g52
sVUniFriend
p320
I0
sVMemberCount
p321
I0
sVOwnerUin
p322
I0
sVMemberList
p323
g50
sVAlias
p324
g52
sVPYQuanPin
p325
Vshijiaozhi
p326
sVSignature
p327
V\u4f60\u966a\u7740\u6211\u7684\u65f6\u5019\uff0c\u6211\u6ca1\u7fa1\u6155\u8fc7\u4efb\u4f55\u4eba\u3002
p328
sVRemarkPYInitial
p329
g52
sVContactFlag
p330
I3
sVUin
p331
I0
sVNickName
p332
V\u89c6\u89c9\u5fd7
p333
sVAppAccountFlag
p334
I0
sVVerifyFlag
p335
I24
sVRemarkPYQuanPin
p336
g52
sVHeadImgUrl
p337
V/cgi-bin/mmwebwx-bin/webwxgeticon?seq=642014907&username=@8aeb8af90aeefd993fe584fc07bc58e1&skey=@crypt_b45f0f0e_1bdbad88173e6c7a00ad2f0be5cdf254
p338
sVKeyWord
p339
Vgh_
p340
sVProvince
p341
V\u5317\u4eac
p342
sVPYInitial
p343
VSJZ
p344
sVRemarkName
p345
g52
sVIsOwner
p346
I0
sVSex
p347
I0
sVStarFriend
p348
I0
sVHideInputBarFlag
p349
I0
sVChatRoomId
p350
I0
sVEncryChatRoomId
p351
g52
sVAttrStatus
p352
I0
sVStatues
p353
I0
stp354
Rp355
I1
bag34
(g142
g39
(dp356
VUserName
p357
V@cff72f209936216d5b3152ea99ef1efe
p358
sVCity
p359
V\u4e2d\u5c71
p360
sVSnsFlag
p361
I0
sVDisplayName
p362
g52
sVUniFriend
p363
I0
sVMemberCount
p364
I0
sVOwnerUin
p365
I0
sVMemberList
p366
g50
sVAlias
p367
g52
sVPYQuanPin
p368
Vyiqishengqianmaimaimai
p369
sVSignature
p370
V\u6bcf\u5929\u5404\u5927\u7535\u5546\u5e73\u53f0\u7cbe\u54c1\u4f18\u60e0\u6c47\u805a\uff08\u672c\u516c\u4f17\u53f7\u4ec5\u4f5c\u6c47\u603b\uff0c\u7ebf\u62a5\u4fe1\u606f\u4e0d\u5177\u5907\u5b9e\u65f6\u6027\uff0c\u6545\u90e8\u5206\u7ebf\u62a5\u53ef\u80fd\u8fc7\u671f\u65e0\u6cd5\u8d2d\u4e70\uff0c\u5982\u9700\u5b9e\u65f6\u7ebf\u62a5\u7ebf\u62a5\u63a8\u9001\u8bf7\u52a0TOTORO_TIM\uff09
p371
sVRemarkPYInitial
p372
g52
sVContactFlag
p373
I3
sVUin
p374
I0
sVNickName
p375
V\u4e00\u8d77\u7701\u94b1\u4e70\u4e70\u4e70
p376
sVAppAccountFlag
p377
I0
sVVerifyFlag
p378
I8
sVRemarkPYQuanPin
p379
g52
sVHeadImgUrl
p380
V/cgi-bin/mmwebwx-bin/webwxgeticon?seq=651720353&username=@cff72f209936216d5b3152ea99ef1efe&skey=@crypt_b45f0f0e_1bdbad88173e6c7a00ad2f0be5cdf254
p381
sVKeyWord
p382
Vgh_
p383
sVProvince
p384
V\u5e7f\u4e1c
p385
sVPYInitial
p386
VYQSQMMM
p387
sVRemarkName
p388
g52
sVIsOwner
p389
I0
sVSex
p390
I0
sVStarFriend
p391
I0
sVHideInputBarFlag
p392
I0
sVChatRoomId
p393
I0
sVEncryChatRoomId
p394
g52
sVAttrStatus
p395
I0
sVStatues
p396
I0
stp397
Rp398
I1
bag34
(g142
g39
(dp399
VUserName
p400
V@0a786fd04c2cba04df6774800e196852
p401
sVCity
p402
V\u5e7f\u5dde
p403
sVSnsFlag
p404
I0
sVDisplayName
p405
g52
sVUniFriend
p406
I0
sVMemberCount
p407
I0
sVOwnerUin
p408
I0
sVMemberList
p409
g50
sVAlias
p410
g52
sVPYQuanPin
p411
Vmaimaimaishengqianzhuli
p412
sVSignature
p413
V\u63d0\u4f9b\u6dd8\u5b9d/\u5929\u732b\u6d77\u91cf\u5185\u90e8\u4f18\u60e0\u5238\uff1b\u6bcf\u65e5\u7cbe\u90098.8\u5305\u90ae\uff1b \u4f60\u8981\u7684\u5546\u54c1\u90fd\u53ef\u4ee5\u5728\u8fd9\u91cc\u641c\u5238\uff01\uff01 \u4e0d\u8981\u94b1\u4f3c\u7684\u4e3a\u4ec0\u4e48\u4e0d\u4e70\uff0c\u4e70\u4e70\u4e70\uff01
p414
sVRemarkPYInitial
p415
g52
sVContactFlag
p416
I3
sVUin
p417
I0
sVNickName
p418
V\u4e70\u4e70\u4e70\u7701\u94b1\u52a9\u7406
p419
sVAppAccountFlag
p420
I0
sVVerifyFlag
p421
I24
sVRemarkPYQuanPin
p422
g52
sVHeadImgUrl
p423
V/cgi-bin/mmwebwx-bin/webwxgeticon?seq=651720344&username=@0a786fd04c2cba04df6774800e196852&skey=@crypt_b45f0f0e_1bdbad88173e6c7a00ad2f0be5cdf254
p424
sVKeyWord
p425
Vgh_
p426
sVProvince
p427
V\u5e7f\u4e1c
p428
sVPYInitial
p429
VMMMSQZL
p430
sVRemarkName
p431
g52
sVIsOwner
p432
I0
sVSex
p433
I0
sVStarFriend
p434
I0
sVHideInputBarFlag
p435
I0
sVChatRoomId
p436
I0
sVEncryChatRoomId
p437
g52
sVAttrStatus
p438
I0
sVStatues
p439
I0
stp440
Rp441
I1
bag34
(g142
g39
(dp442
VUserName
p443
V@0e595608a25a0c4d8fa220f0b13c0578
p444
sVCity
p445
g52
sVSnsFlag
p446
I0
sVDisplayName
p447
g52
sVUniFriend
p448
I0
sVMemberCount
p449
I0
sVOwnerUin
p450
I0
sVMemberList
p451
g50
sVAlias
p452
g52
sVPYQuanPin
p453
Vshenpotaluozhanbu
p454
sVSignature
p455
Vhello~\u6211\u662f\u795e\u5a46\uff0c\u5854\u7f57\u3001\u661f\u5ea7\u8d44\u6df1\u5360\u535c\u5e08\uff0c\u6b22\u8fce\u6765\u5230\u795e\u5a46\u7684\u5360\u535c\u5c0f\u5929\u5730~\u66f4\u591a\u6709\u8da3\u7684\u661f\u5ea7\u5185\u5bb9\u6b22\u8fce\u5173\u6ce8\u5a46\u5a46\u5b98\u65b9\u5fae\u535a\u201c\u795e\u5a46\u5854\u7f57\u5360\u535c\u201d\uff0c\u7b49\u4f60\u6765\u64a9\u54e6\uff01
p456
sVRemarkPYInitial
p457
g52
sVContactFlag
p458
I3
sVUin
p459
I0
sVNickName
p460
V\u795e\u5a46\u5854\u7f57\u5360\u535c
p461
sVAppAccountFlag
p462
I0
sVVerifyFlag
p463
I8
sVRemarkPYQuanPin
p464
g52
sVHeadImgUrl
p465
V/cgi-bin/mmwebwx-bin/webwxgeticon?seq=651558356&username=@0e595608a25a0c4d8fa220f0b13c0578&skey=@crypt_b45f0f0e_1bdbad88173e6c7a00ad2f0be5cdf254
p466
sVKeyWord
p467
Vgh_
p468
sVProvince
p469
VSt. Anthony
p470
sVPYInitial
p471
VSPTLZB
p472
sVRemarkName
p473
g52
sVIsOwner
p474
I0
sVSex
p475
I0
sVStarFriend
p476
I0
sVHideInputBarFlag
p477
I0
sVChatRoomId
p478
I0
sVEncryChatRoomId
p479
g52
sVAttrStatus
p480
I0
sVStatues
p481
I0
stp482
Rp483
I1
bag34
(g142
g39
(dp484
VUserName
p485
V@a5bc0f01ce49074932ccfbd9ffcff689
p486
sVCity
p487
V\u6d66\u4e1c\u65b0\u533a
p488
sVSnsFlag
p489
I0
sVDisplayName
p490
g52
sVUniFriend
p491
I0
sVMemberCount
p492
I0
sVOwnerUin
p493
I0
sVMemberList
p494
g50
sVAlias
p495
g52
sVPYQuanPin
p496
Vpinganpuhui
p497
sVSignature
p498
V\u5728\u4e2d\u56fd\u666e\u60e0\u91d1\u878d\u9886\u57df\uff0c\u5e73\u5b89\u666e\u60e0\u91d1\u878d\u4e1a\u52a1\u96c6\u7fa4\u5386\u7ecf\u53d1\u5c55\uff0c\u4ee5\u521b\u65b0\u7684\u79d1\u6280\u548c\u5b8c\u5584\u7684\u98ce\u63a7\u4e3a\u5e7f\u5927\u5c0f\u5fae\u578b\u4f01\u4e1a\u548c\u4e2a\u4eba\u5ba2\u6237\u63d0\u4f9b\u66f4\u52a0\u4f18\u8d28\u7684\u501f\u6b3e\u670d\u52a1\u3002\u79c9\u627f\u201c\u4fe1\u4efb\u5c31\u662f\u529b\u91cf\u201d\u7684\u54c1\u724c\u7406\u5ff5\u8df5\u884c\u4fe1\u4efb\u4e3a\u9a71\u52a8\u7684\u65b0\u578b\u666e\u60e0\u91d1\u878d\u3002\u81f4\u529b\u4e8e\u6210\u4e3a\u5168\u7403\u6700\u503c\u5f97\u4fe1\u8d56\u7684\u3001\u5ba2\u6237\u9996\u9009\u7684\u666e\u60e0\u91d1\u878d\u54c1\u724c\u3002
p499
sVRemarkPYInitial
p500
g52
sVContactFlag
p501
I3
sVUin
p502
I0
sVNickName
p503
V\u5e73\u5b89\u666e\u60e0
p504
sVAppAccountFlag
p505
I0
sVVerifyFlag
p506
I24
sVRemarkPYQuanPin
p507
g52
sVHeadImgUrl
p508
V/cgi-bin/mmwebwx-bin/webwxgeticon?seq=651728898&username=@a5bc0f01ce49074932ccfbd9ffcff689&skey=@crypt_b45f0f0e_1bdbad88173e6c7a00ad2f0be5cdf254
p509
sVKeyWord
p510
Vgh_
p511
sVProvince
p512
V\u4e0a\u6d77
p513
sVPYInitial
p514
VPAPH
p515
sVRemarkName
p516
g52
sVIsOwner
p517
I0
sVSex
p518
I0
sVStarFriend
p519
I0
sVHideInputBarFlag
p520
I0
sVChatRoomId
p521
I0
sVEncryChatRoomId
p522
g52
sVAttrStatus
p523
I0
sVStatues
p524
I0
stp525
Rp526
I1
batp527
Rp528
I1
bssS'loginInfo'
p529
(dp530
S'SyncKey'
p531
(dp532
VCount
p533
I4
sVList
p534
(lp535
(dp536
VVal
p537
I668410029
sVKey
p538
I1
sa(dp539
VVal
p540
I668412865
sVKey
p541
I2
sa(dp542
VVal
p543
I668412710
sVKey
p544
I3
sa(dp545
VVal
p546
I1516787762
sVKey
p547
I1000
sassS'syncUrl'
p548
S'https://webpush.wx2.qq.com/cgi-bin/mmwebwx-bin'
p549
sS'skey'
p550
V@crypt_b45f0f0e_1bdbad88173e6c7a00ad2f0be5cdf254
p551
sS'wxuin'
p552
V2508128381
p553
sS'synckey'
p554
S'1_668410029|2_668412865|3_668412710|1000_1516787762'
p555
sS'url'
p556
Vhttps://wx2.qq.com/cgi-bin/mmwebwx-bin
p557
sS'pass_ticket'
p558
V3xhrQDtshCXW%2F1eZDBjaZZgszb%2FNRoGMk%2B%2B80ijuSS85cYelwz2tYBdE5Mjd3OdT
p559
sS'deviceid'
p560
S'e601186446235324'
p561
sS'wxsid'
p562
VMMtgJyg7aplZzvu2
p563
sS'InviteStartCount'
p564
I40
sS'fileUrl'
p565
S'https://file.wx2.qq.com/cgi-bin/mmwebwx-bin'
p566
sS'BaseRequest'
p567
(dp568
g54
g553
sS'Skey'
p569
g551
sS'DeviceID'
p570
g559
sS'Sid'
p571
g563
ssS'User'
p572
g34
(g38
g39
(dp573
g41
g31
sg42
g43
sg44
g43
sg45
I0
sg47
g50
sg51
g52
sg53
g52
sg78
I1
sg55
I0
sg56
I0
sg57
g43
sg58
g43
sg59
g52
sg60
g52
sg61
I0
sg62
I0
sg63
I1
sg64
g43
sg65
I0
sg68
I0
sg66
I17
sg67
I0
sg46
I0
sg69
g43
sg70
V\u5929\u884c\u5065\uff0c\u541b\u5b50\u4ee5\u81ea\u5f3a\u4e0d\u606f\u000a\u5730\u52bf\u5764\uff0c\u541b\u5b50\u4ee5\u539a\u5fb7\u8f7d\u7269
p574
sg72
I0
sg73
g74
sg75
g52
sg76
g77
sg54
I2508128381
sg79
I0
sg80
I0
stp575
Rp576
I1
bss.